; Function Attrs: nounwind uwtable
define dso_local range(i32 0, 2) i32 @zzlLexValueLteMax(ptr noundef %0, ptr noundef readonly captures(none) %1) local_unnamed_addr #0 {
  %3 = alloca i32, align 4
  %4 = alloca i64, align 8
  call void @llvm.lifetime.start.p0(i64 4, ptr nonnull %3) #18
  call void @llvm.lifetime.start.p0(i64 8, ptr nonnull %4) #18
  %.not.i = icmp eq ptr %0, null
  br i1 %.not.i, label %5, label %6, !prof !40

5:                                                ; preds = %2
  tail call void @_serverAssert(ptr noundef nonnull @.str.3, ptr noundef nonnull @.str.1, i32 noundef 803) #18
  tail call void @abort() #19
  unreachable

6:                                                ; preds = %2
  %7 = call ptr @lpGetValue(ptr noundef nonnull %0, ptr noundef nonnull %3, ptr noundef nonnull %4) #18
  %.not7.i = icmp eq ptr %7, null
  br i1 %.not7.i, label %12, label %8

8:                                                ; preds = %6
  %9 = load i32, ptr %3, align 4, !tbaa !78
  %10 = zext i32 %9 to i64
  %11 = call ptr @sdsnewlen(ptr noundef nonnull %7, i64 noundef %10) #18
  br label %lpGetObject.exit

12:                                               ; preds = %6
  %13 = load i64, ptr %4, align 8, !tbaa !88
  %14 = call ptr @sdsfromlonglong(i64 noundef %13) #18
  br label %lpGetObject.exit

lpGetObject.exit:                                 ; preds = %8, %12
  %.0.i = phi ptr [ %11, %8 ], [ %14, %12 ]
  call void @llvm.lifetime.end.p0(i64 8, ptr nonnull %4) #18
  call void @llvm.lifetime.end.p0(i64 4, ptr nonnull %3) #18
  %15 = getelementptr inbounds nuw i8, ptr %1, i64 20
  %16 = load i32, ptr %15, align 4, !tbaa !67
  %.not.i4 = icmp eq i32 %16, 0
  %17 = getelementptr inbounds nuw i8, ptr %1, i64 8
  %18 = load ptr, ptr %17, align 8, !tbaa !68
  %19 = icmp eq ptr %.0.i, %18
  br i1 %.not.i4, label %33, label %20

20:                                               ; preds = %lpGetObject.exit
  br i1 %19, label %zslLexValueLteMax.exit, label %21

21:                                               ; preds = %20
  %22 = load ptr, ptr getelementptr inbounds nuw (i8, ptr @shared, i64 81904), align 8, !tbaa !61
  %23 = icmp eq ptr %.0.i, %22
  br i1 %23, label %zslLexValueLteMax.exit, label %24

24:                                               ; preds = %21
  %25 = load ptr, ptr getelementptr inbounds nuw (i8, ptr @shared, i64 81912), align 8, !tbaa !64
  %26 = icmp eq ptr %18, %25
  br i1 %26, label %zslLexValueLteMax.exit, label %27

27:                                               ; preds = %24
  %28 = icmp eq ptr %.0.i, %25
  %29 = icmp eq ptr %18, %22
  %or.cond.i.i = or i1 %29, %28
  br i1 %or.cond.i.i, label %zslLexValueLteMax.exit, label %30

30:                                               ; preds = %27
  %31 = call i32 @sdscmp(ptr noundef %.0.i, ptr noundef %18) #18
  %32 = lshr i32 %31, 31
  br label %zslLexValueLteMax.exit

33:                                               ; preds = %lpGetObject.exit
  br i1 %19, label %zslLexValueLteMax.exit, label %34

34:                                               ; preds = %33
  %35 = load ptr, ptr getelementptr inbounds nuw (i8, ptr @shared, i64 81904), align 8, !tbaa !61
  %36 = icmp eq ptr %.0.i, %35
  br i1 %36, label %zslLexValueLteMax.exit, label %37

37:                                               ; preds = %34
  %38 = load ptr, ptr getelementptr inbounds nuw (i8, ptr @shared, i64 81912), align 8, !tbaa !64
  %39 = icmp eq ptr %18, %38
  br i1 %39, label %zslLexValueLteMax.exit, label %40

40:                                               ; preds = %37
  %41 = icmp eq ptr %.0.i, %38
  %42 = icmp eq ptr %18, %35
  %or.cond.i5.i = or i1 %42, %41
  br i1 %or.cond.i5.i, label %zslLexValueLteMax.exit, label %43

43:                                               ; preds = %40
  %44 = call i32 @sdscmp(ptr noundef %.0.i, ptr noundef %18) #18
  %45 = icmp slt i32 %44, 1
  %46 = zext i1 %45 to i32
  br label %zslLexValueLteMax.exit

zslLexValueLteMax.exit:                           ; preds = %20, %21, %24, %27, %30, %33, %34, %37, %40, %43
  %47 = phi i32 [ %32, %30 ], [ 0, %20 ], [ 1, %24 ], [ 1, %21 ], [ 0, %27 ], [ %46, %43 ], [ 1, %33 ], [ 1, %37 ], [ 1, %34 ], [ 0, %40 ]
  call void @sdsfree(ptr noundef %.0.i) #18
  ret i32 %47
}